; Function Attrs: mustprogress nofree norecurse nosync nounwind willreturn memory(read, inaccessiblemem: none) uwtable
define dso_local noundef zeroext i1 @_ZNK11btMultiBody30isLinkAndAllAncestorsKinematicEi(ptr nocapture noundef nonnull readonly align 8 dereferenceable(640) %this, i32 noundef %i) local_unnamed_addr #6 align 2 {
entry:
  %cmp.not5 = icmp eq i32 %i, -1
  br i1 %cmp.not5, label %while.end, label %if.else.i.lr.ph

if.else.i.lr.ph:                                  ; preds = %entry
  %m_data.i.i = getelementptr inbounds i8, ptr %this, i64 192
  %0 = load ptr, ptr %m_data.i.i, align 8
  br label %if.else.i

if.else.i:                                        ; preds = %if.else.i.lr.ph, %if.end
  %link.06 = phi i32 [ %i, %if.else.i.lr.ph ], [ %3, %if.end ]
  %idxprom.i.i = sext i32 %link.06 to i64
  %m_collider.i = getelementptr inbounds %struct.btMultibodyLink, ptr %0, i64 %idxprom.i.i, i32 22
  %1 = load ptr, ptr %m_collider.i, align 8
  %tobool.not.i = icmp eq ptr %1, null
  br i1 %tobool.not.i, label %return, label %_ZNK11btMultiBody15isLinkKinematicEi.exit

_ZNK11btMultiBody15isLinkKinematicEi.exit:        ; preds = %if.else.i
  %m_collisionFlags.i.i.i = getelementptr inbounds i8, ptr %1, i64 224
  %2 = load i32, ptr %m_collisionFlags.i.i.i, align 8
  %and.i.i.i = and i32 %2, 2
  %cmp.i.i.i.not = icmp eq i32 %and.i.i.i, 0
  br i1 %cmp.i.i.i.not, label %return, label %if.end

if.end:                                           ; preds = %_ZNK11btMultiBody15isLinkKinematicEi.exit
  %m_parent = getelementptr inbounds %struct.btMultibodyLink, ptr %0, i64 %idxprom.i.i, i32 2
  %3 = load i32, ptr %m_parent, align 4
  %cmp.not = icmp eq i32 %3, -1
  br i1 %cmp.not, label %while.end, label %if.else.i, !llvm.loop !34

while.end:                                        ; preds = %if.end, %entry
  %m_baseCollider.i.i = getelementptr inbounds i8, ptr %this, i64 8
  %4 = load ptr, ptr %m_baseCollider.i.i, align 8
  %tobool.not.i3 = icmp eq ptr %4, null
  br i1 %tobool.not.i3, label %return, label %land.rhs.i

land.rhs.i:                                       ; preds = %while.end
  %m_collisionFlags.i.i = getelementptr inbounds i8, ptr %4, i64 224
  %5 = load i32, ptr %m_collisionFlags.i.i, align 8
  %and.i.i = and i32 %5, 2
  %cmp.i.i = icmp ne i32 %and.i.i, 0
  br label %return

return:                                           ; preds = %if.else.i, %_ZNK11btMultiBody15isLinkKinematicEi.exit, %land.rhs.i, %while.end
  %retval.0 = phi i1 [ false, %while.end ], [ %cmp.i.i, %land.rhs.i ], [ false, %_ZNK11btMultiBody15isLinkKinematicEi.exit ], [ false, %if.else.i ]
  ret i1 %retval.0
}